; Function Attrs: mustprogress nounwind uwtable
define dso_local void @_ZN4node14StreamListenerD2Ev(ptr noundef nonnull align 8 dereferenceable(24) %this) unnamed_addr #3 align 2 {
entry:
  store ptr getelementptr inbounds ({ [10 x ptr] }, ptr @_ZTVN4node14StreamListenerE, i64 0, i32 0, i64 2), ptr %this, align 8
  %stream_ = getelementptr inbounds i8, ptr %this, i64 8
  %0 = load ptr, ptr %stream_, align 8
  %cmp.not = icmp eq ptr %0, null
  br i1 %cmp.not, label %if.end, label %if.then

if.then:                                          ; preds = %entry
  %listener_.i = getelementptr inbounds i8, ptr %0, i64 8
  %current.012.i = load ptr, ptr %listener_.i, align 8
  %cmp7.not13.i = icmp eq ptr %current.012.i, null
  br i1 %cmp7.not13.i, label %do.body12.i, label %do.end15.i.preheader

do.end15.i.preheader:                             ; preds = %if.then
  %cmp16.i2 = icmp eq ptr %current.012.i, %this
  br i1 %cmp16.i2, label %_ZN4node14StreamResource20RemoveStreamListenerEPNS_14StreamListenerE.exit, label %for.inc.i

do.body12.i:                                      ; preds = %for.inc.i, %if.then
  tail call void @_ZN4node6AssertERKNS_13AssertionInfoE(ptr noundef nonnull align 8 dereferenceable(24) @_ZZN4node14StreamResource20RemoveStreamListenerEPNS_14StreamListenerEE4args_0) #20
  tail call void @abort() #21
  unreachable

do.end15.i:                                       ; preds = %for.inc.i
  %cmp16.i = icmp eq ptr %current.0.i, %this
  br i1 %cmp16.i, label %_ZN4node14StreamResource20RemoveStreamListenerEPNS_14StreamListenerE.exit, label %for.inc.i, !llvm.loop !11

for.inc.i:                                        ; preds = %do.end15.i.preheader, %do.end15.i
  %current.015.i3 = phi ptr [ %current.0.i, %do.end15.i ], [ %current.012.i, %do.end15.i.preheader ]
  %previous_listener_25.i = getelementptr inbounds i8, ptr %current.015.i3, i64 16
  %current.0.i = load ptr, ptr %previous_listener_25.i, align 8
  %cmp7.not.i = icmp eq ptr %current.0.i, null
  br i1 %cmp7.not.i, label %do.body12.i, label %do.end15.i, !llvm.loop !11

_ZN4node14StreamResource20RemoveStreamListenerEPNS_14StreamListenerE.exit: ; preds = %do.end15.i, %do.end15.i.preheader
  %previous.014.i.lcssa = phi ptr [ null, %do.end15.i.preheader ], [ %current.015.i3, %do.end15.i ]
  %cmp18.not.i = icmp eq ptr %previous.014.i.lcssa, null
  %previous_listener_21.i = getelementptr inbounds i8, ptr %this, i64 16
  %1 = load ptr, ptr %previous_listener_21.i, align 8
  %previous_listener_20.i = getelementptr inbounds i8, ptr %previous.014.i.lcssa, i64 16
  %previous_listener_20.sink.i = select i1 %cmp18.not.i, ptr %listener_.i, ptr %previous_listener_20.i
  store ptr %1, ptr %previous_listener_20.sink.i, align 8
  tail call void @llvm.memset.p0.i64(ptr noundef nonnull align 8 dereferenceable(16) %stream_, i8 0, i64 16, i1 false)
  br label %if.end

if.end:                                           ; preds = %_ZN4node14StreamResource20RemoveStreamListenerEPNS_14StreamListenerE.exit, %entry
  ret void
}